
run.out:     file format elf64-littleriscv


Disassembly of section .text:

0000000004000000 <entry>:
 4000000:	00000297          	auipc	t0,0x0
 4000004:	00028293          	mv	t0,t0
 4000008:	fc004317          	auipc	t1,0xfc004
 400000c:	ff830313          	addi	t1,t1,-8 # 4000 <__stack>
 4000010:	fc001397          	auipc	t2,0xfc001
 4000014:	ff038393          	addi	t2,t2,-16 # 1000 <__offset>
 4000018:	9316                	add	t1,t1,t0
 400001a:	40e022f3          	csrr	t0,0x40e
 400001e:	025383b3          	mul	t2,t2,t0
 4000022:	00730133          	add	sp,t1,t2
 4000026:	00028e63          	beqz	t0,4000042 <normal>

000000000400002a <enclave>:
 400002a:	4a6000ef          	jal	ra,40004d0 <initialize>
 400002e:	fc001317          	auipc	t1,0xfc001
 4000032:	fd230313          	addi	t1,t1,-46 # 1000 <__offset>
 4000036:	006503b3          	add	t2,a0,t1
 400003a:	00638133          	add	sp,t2,t1
 400003e:	00050067          	jr	a0

0000000004000042 <normal>:
 4000042:	57c000ef          	jal	ra,40005be <normalWorld>
 4000046:	7c000297          	auipc	t0,0x7c000
 400004a:	fba28293          	addi	t0,t0,-70 # 80000000 <__dram>
 400004e:	00000133          	add	sp,zero,zero
 4000052:	00028067          	jr	t0

0000000004000056 <output_char>:
 4000056:	1101                	addi	sp,sp,-32
 4000058:	ec22                	sd	s0,24(sp)
 400005a:	1000                	addi	s0,sp,32
 400005c:	87aa                	mv	a5,a0
 400005e:	fef407a3          	sb	a5,-17(s0)
 4000062:	fef44783          	lbu	a5,-17(s0)
 4000066:	40479073          	csrw	0x404,a5
 400006a:	0001                	nop
 400006c:	6462                	ld	s0,24(sp)
 400006e:	6105                	addi	sp,sp,32
 4000070:	8082                	ret

0000000004000072 <output_string>:
 4000072:	7179                	addi	sp,sp,-48
 4000074:	f406                	sd	ra,40(sp)
 4000076:	f022                	sd	s0,32(sp)
 4000078:	1800                	addi	s0,sp,48
 400007a:	fca43c23          	sd	a0,-40(s0)
 400007e:	fe042623          	sw	zero,-20(s0)
 4000082:	a005                	j	40000a2 <output_string+0x30>
 4000084:	fec42783          	lw	a5,-20(s0)
 4000088:	fd843703          	ld	a4,-40(s0)
 400008c:	97ba                	add	a5,a5,a4
 400008e:	0007c783          	lbu	a5,0(a5)
 4000092:	853e                	mv	a0,a5
 4000094:	fc3ff0ef          	jal	ra,4000056 <output_char>
 4000098:	fec42783          	lw	a5,-20(s0)
 400009c:	2785                	addiw	a5,a5,1
 400009e:	fef42623          	sw	a5,-20(s0)
 40000a2:	fec42783          	lw	a5,-20(s0)
 40000a6:	fd843703          	ld	a4,-40(s0)
 40000aa:	97ba                	add	a5,a5,a4
 40000ac:	0007c783          	lbu	a5,0(a5)
 40000b0:	fbf1                	bnez	a5,4000084 <output_string+0x12>
 40000b2:	0001                	nop
 40000b4:	70a2                	ld	ra,40(sp)
 40000b6:	7402                	ld	s0,32(sp)
 40000b8:	6145                	addi	sp,sp,48
 40000ba:	8082                	ret

00000000040000bc <flushRemappingTable>:
 40000bc:	1141                	addi	sp,sp,-16
 40000be:	e422                	sd	s0,8(sp)
 40000c0:	0800                	addi	s0,sp,16
 40000c2:	0001                	nop
 40000c4:	6422                	ld	s0,8(sp)
 40000c6:	0141                	addi	sp,sp,16
 40000c8:	8082                	ret

00000000040000ca <flushL1Cache>:
 40000ca:	1141                	addi	sp,sp,-16
 40000cc:	e422                	sd	s0,8(sp)
 40000ce:	0800                	addi	s0,sp,16
 40000d0:	0001                	nop
 40000d2:	6422                	ld	s0,8(sp)
 40000d4:	0141                	addi	sp,sp,16
 40000d6:	8082                	ret

00000000040000d8 <fillPage>:
 40000d8:	7179                	addi	sp,sp,-48
 40000da:	f422                	sd	s0,40(sp)
 40000dc:	1800                	addi	s0,sp,48
 40000de:	fca43c23          	sd	a0,-40(s0)
 40000e2:	87ae                	mv	a5,a1
 40000e4:	fcf40ba3          	sb	a5,-41(s0)
 40000e8:	fd843783          	ld	a5,-40(s0)
 40000ec:	fef43023          	sd	a5,-32(s0)
 40000f0:	fe042623          	sw	zero,-20(s0)
 40000f4:	a839                	j	4000112 <fillPage+0x3a>
 40000f6:	fec42783          	lw	a5,-20(s0)
 40000fa:	fe043703          	ld	a4,-32(s0)
 40000fe:	97ba                	add	a5,a5,a4
 4000100:	fd744703          	lbu	a4,-41(s0)
 4000104:	00e78023          	sb	a4,0(a5)
 4000108:	fec42783          	lw	a5,-20(s0)
 400010c:	2785                	addiw	a5,a5,1
 400010e:	fef42623          	sw	a5,-20(s0)
 4000112:	fec42783          	lw	a5,-20(s0)
 4000116:	0007871b          	sext.w	a4,a5
 400011a:	6785                	lui	a5,0x1
 400011c:	fcf74de3          	blt	a4,a5,40000f6 <fillPage+0x1e>
 4000120:	0001                	nop
 4000122:	7422                	ld	s0,40(sp)
 4000124:	6145                	addi	sp,sp,48
 4000126:	8082                	ret

0000000004000128 <putPageEntry>:
 4000128:	7179                	addi	sp,sp,-48
 400012a:	f406                	sd	ra,40(sp)
 400012c:	f022                	sd	s0,32(sp)
 400012e:	1800                	addi	s0,sp,48
 4000130:	fca43c23          	sd	a0,-40(s0)
 4000134:	fcb43823          	sd	a1,-48(s0)
 4000138:	fd843783          	ld	a5,-40(s0)
 400013c:	fef43423          	sd	a5,-24(s0)
 4000140:	fe843783          	ld	a5,-24(s0)
 4000144:	0007c783          	lbu	a5,0(a5) # 1000 <__offset>
 4000148:	fef403a3          	sb	a5,-25(s0)
 400014c:	fd043503          	ld	a0,-48(s0)
 4000150:	520000ef          	jal	ra,4000670 <setArgumentEnclaveIdentifier>
 4000154:	fe843783          	ld	a5,-24(s0)
 4000158:	40f79073          	csrw	0x40f,a5
 400015c:	fe744783          	lbu	a5,-25(s0)
 4000160:	0ff7f793          	andi	a5,a5,255
 4000164:	853e                	mv	a0,a5
 4000166:	70a2                	ld	ra,40(sp)
 4000168:	7402                	ld	s0,32(sp)
 400016a:	6145                	addi	sp,sp,48
 400016c:	8082                	ret

000000000400016e <resetNormalWorld>:
 400016e:	1141                	addi	sp,sp,-16
 4000170:	e422                	sd	s0,8(sp)
 4000172:	0800                	addi	s0,sp,16
 4000174:	0001                	nop
 4000176:	6422                	ld	s0,8(sp)
 4000178:	0141                	addi	sp,sp,16
 400017a:	8082                	ret

000000000400017c <clearWorkingMemory>:
 400017c:	1141                	addi	sp,sp,-16
 400017e:	e422                	sd	s0,8(sp)
 4000180:	0800                	addi	s0,sp,16
 4000182:	0001                	nop
 4000184:	6422                	ld	s0,8(sp)
 4000186:	0141                	addi	sp,sp,16
 4000188:	8082                	ret

000000000400018a <saveCurrentContext>:
 400018a:	1101                	addi	sp,sp,-32
 400018c:	ec22                	sd	s0,24(sp)
 400018e:	1000                	addi	s0,sp,32
 4000190:	fea43423          	sd	a0,-24(s0)
 4000194:	0001                	nop
 4000196:	6462                	ld	s0,24(sp)
 4000198:	6105                	addi	sp,sp,32
 400019a:	8082                	ret

000000000400019c <createEnclave>:
 400019c:	1101                	addi	sp,sp,-32
 400019e:	ec22                	sd	s0,24(sp)
 40001a0:	1000                	addi	s0,sp,32
 40001a2:	040027b7          	lui	a5,0x4002
 40001a6:	fef43423          	sd	a5,-24(s0)
 40001aa:	00000797          	auipc	a5,0x0
 40001ae:	5b678793          	addi	a5,a5,1462 # 4000760 <state>
 40001b2:	6798                	ld	a4,8(a5)
 40001b4:	fe843783          	ld	a5,-24(s0)
 40001b8:	e798                	sd	a4,8(a5)
 40001ba:	00000797          	auipc	a5,0x0
 40001be:	5a678793          	addi	a5,a5,1446 # 4000760 <state>
 40001c2:	679c                	ld	a5,8(a5)
 40001c4:	00178713          	addi	a4,a5,1
 40001c8:	00000797          	auipc	a5,0x0
 40001cc:	59878793          	addi	a5,a5,1432 # 4000760 <state>
 40001d0:	e798                	sd	a4,8(a5)
 40001d2:	fe843783          	ld	a5,-24(s0)
 40001d6:	0007a023          	sw	zero,0(a5)
 40001da:	4781                	li	a5,0
 40001dc:	853e                	mv	a0,a5
 40001de:	6462                	ld	s0,24(sp)
 40001e0:	6105                	addi	sp,sp,32
 40001e2:	8082                	ret

00000000040001e4 <donatePage>:
 40001e4:	7179                	addi	sp,sp,-48
 40001e6:	f406                	sd	ra,40(sp)
 40001e8:	f022                	sd	s0,32(sp)
 40001ea:	1800                	addi	s0,sp,48
 40001ec:	fca43c23          	sd	a0,-40(s0)
 40001f0:	fcb43823          	sd	a1,-48(s0)
 40001f4:	040027b7          	lui	a5,0x4002
 40001f8:	fef43423          	sd	a5,-24(s0)
 40001fc:	fe843783          	ld	a5,-24(s0)
 4000200:	679c                	ld	a5,8(a5)
 4000202:	fd843703          	ld	a4,-40(s0)
 4000206:	00f70a63          	beq	a4,a5,400021a <donatePage+0x36>
 400020a:	00000517          	auipc	a0,0x0
 400020e:	59e50513          	addi	a0,a0,1438 # 40007a8 <internalArgument+0x8>
 4000212:	e61ff0ef          	jal	ra,4000072 <output_string>
 4000216:	4781                	li	a5,0
 4000218:	a8b5                	j	4000294 <donatePage+0xb0>
 400021a:	fd043703          	ld	a4,-48(s0)
 400021e:	6785                	lui	a5,0x1
 4000220:	17fd                	addi	a5,a5,-1
 4000222:	8ff9                	and	a5,a5,a4
 4000224:	cb89                	beqz	a5,4000236 <donatePage+0x52>
 4000226:	00000517          	auipc	a0,0x0
 400022a:	5a250513          	addi	a0,a0,1442 # 40007c8 <internalArgument+0x28>
 400022e:	e45ff0ef          	jal	ra,4000072 <output_string>
 4000232:	4781                	li	a5,0
 4000234:	a085                	j	4000294 <donatePage+0xb0>
 4000236:	fe843783          	ld	a5,-24(s0)
 400023a:	439c                	lw	a5,0(a5)
 400023c:	86be                	mv	a3,a5
 400023e:	4705                	li	a4,1
 4000240:	02e68b63          	beq	a3,a4,4000276 <donatePage+0x92>
 4000244:	86be                	mv	a3,a5
 4000246:	4705                	li	a4,1
 4000248:	00e6e763          	bltu	a3,a4,4000256 <donatePage+0x72>
 400024c:	873e                	mv	a4,a5
 400024e:	4789                	li	a5,2
 4000250:	02f70a63          	beq	a4,a5,4000284 <donatePage+0xa0>
 4000254:	a081                	j	4000294 <donatePage+0xb0>
 4000256:	fe843783          	ld	a5,-24(s0)
 400025a:	fd043703          	ld	a4,-48(s0)
 400025e:	eb98                	sd	a4,16(a5)
 4000260:	fe843783          	ld	a5,-24(s0)
 4000264:	4705                	li	a4,1
 4000266:	c398                	sw	a4,0(a5)
 4000268:	fd843583          	ld	a1,-40(s0)
 400026c:	fd043503          	ld	a0,-48(s0)
 4000270:	eb9ff0ef          	jal	ra,4000128 <putPageEntry>
 4000274:	a005                	j	4000294 <donatePage+0xb0>
 4000276:	fd843583          	ld	a1,-40(s0)
 400027a:	fd043503          	ld	a0,-48(s0)
 400027e:	eabff0ef          	jal	ra,4000128 <putPageEntry>
 4000282:	a809                	j	4000294 <donatePage+0xb0>
 4000284:	00000517          	auipc	a0,0x0
 4000288:	57c50513          	addi	a0,a0,1404 # 4000800 <internalArgument+0x60>
 400028c:	de7ff0ef          	jal	ra,4000072 <output_string>
 4000290:	4781                	li	a5,0
 4000292:	a009                	j	4000294 <donatePage+0xb0>
 4000294:	853e                	mv	a0,a5
 4000296:	70a2                	ld	ra,40(sp)
 4000298:	7402                	ld	s0,32(sp)
 400029a:	6145                	addi	sp,sp,48
 400029c:	8082                	ret

000000000400029e <switchEnclave>:
 400029e:	7139                	addi	sp,sp,-64
 40002a0:	fc06                	sd	ra,56(sp)
 40002a2:	f822                	sd	s0,48(sp)
 40002a4:	0080                	addi	s0,sp,64
 40002a6:	87aa                	mv	a5,a0
 40002a8:	fcb43023          	sd	a1,-64(s0)
 40002ac:	fcf42623          	sw	a5,-52(s0)
 40002b0:	57f9                	li	a5,-2
 40002b2:	fcf43c23          	sd	a5,-40(s0)
 40002b6:	fcc46783          	lwu	a5,-52(s0)
 40002ba:	5779                	li	a4,-2
 40002bc:	40f707b3          	sub	a5,a4,a5
 40002c0:	fef43023          	sd	a5,-32(s0)
 40002c4:	4795                	li	a5,5
 40002c6:	fcf42823          	sw	a5,-48(s0)
 40002ca:	fc043783          	ld	a5,-64(s0)
 40002ce:	fef43423          	sd	a5,-24(s0)
 40002d2:	fd040793          	addi	a5,s0,-48
 40002d6:	853e                	mv	a0,a5
 40002d8:	3b2000ef          	jal	ra,400068a <sendMessage>
 40002dc:	fd040793          	addi	a5,s0,-48
 40002e0:	853e                	mv	a0,a5
 40002e2:	3fe000ef          	jal	ra,40006e0 <receiveMessage>
 40002e6:	fd843703          	ld	a4,-40(s0)
 40002ea:	fcc46783          	lwu	a5,-52(s0)
 40002ee:	56f9                	li	a3,-2
 40002f0:	40f687b3          	sub	a5,a3,a5
 40002f4:	fef714e3          	bne	a4,a5,40002dc <switchEnclave+0x3e>
 40002f8:	0001                	nop
 40002fa:	70e2                	ld	ra,56(sp)
 40002fc:	7442                	ld	s0,48(sp)
 40002fe:	6121                	addi	sp,sp,64
 4000300:	8082                	ret

0000000004000302 <waitForEnclave>:
 4000302:	715d                	addi	sp,sp,-80
 4000304:	e486                	sd	ra,72(sp)
 4000306:	e0a2                	sd	s0,64(sp)
 4000308:	0880                	addi	s0,sp,80
 400030a:	fe043423          	sd	zero,-24(s0)
 400030e:	fb840793          	addi	a5,s0,-72
 4000312:	853e                	mv	a0,a5
 4000314:	3cc000ef          	jal	ra,40006e0 <receiveMessage>
 4000318:	fc043703          	ld	a4,-64(s0)
 400031c:	57f9                	li	a5,-2
 400031e:	fef718e3          	bne	a4,a5,400030e <waitForEnclave+0xc>
 4000322:	fc043783          	ld	a5,-64(s0)
 4000326:	fef43023          	sd	a5,-32(s0)
 400032a:	fc843783          	ld	a5,-56(s0)
 400032e:	fcf43023          	sd	a5,-64(s0)
 4000332:	fe043783          	ld	a5,-32(s0)
 4000336:	fcf43423          	sd	a5,-56(s0)
 400033a:	fb840793          	addi	a5,s0,-72
 400033e:	853e                	mv	a0,a5
 4000340:	34a000ef          	jal	ra,400068a <sendMessage>
 4000344:	fd043783          	ld	a5,-48(s0)
 4000348:	853e                	mv	a0,a5
 400034a:	290000ef          	jal	ra,40005da <switchEnclaveID>
 400034e:	040027b7          	lui	a5,0x4002
 4000352:	fcf43c23          	sd	a5,-40(s0)
 4000356:	fd843783          	ld	a5,-40(s0)
 400035a:	6b9c                	ld	a5,16(a5)
 400035c:	fef43423          	sd	a5,-24(s0)
 4000360:	0001                	nop
 4000362:	fe843783          	ld	a5,-24(s0)
 4000366:	853e                	mv	a0,a5
 4000368:	60a6                	ld	ra,72(sp)
 400036a:	6406                	ld	s0,64(sp)
 400036c:	6161                	addi	sp,sp,80
 400036e:	8082                	ret

0000000004000370 <managementRoutine>:
 4000370:	7149                	addi	sp,sp,-368
 4000372:	f686                	sd	ra,360(sp)
 4000374:	f2a2                	sd	s0,352(sp)
 4000376:	1a80                	addi	s0,sp,368
 4000378:	ee040793          	addi	a5,s0,-288
 400037c:	853e                	mv	a0,a5
 400037e:	e0dff0ef          	jal	ra,400018a <saveCurrentContext>
 4000382:	2d4000ef          	jal	ra,4000656 <getCurrentEnclaveID>
 4000386:	fea43423          	sd	a0,-24(s0)
 400038a:	0a2027b7          	lui	a5,0xa202
 400038e:	0747879b          	addiw	a5,a5,116
 4000392:	ecf42c23          	sw	a5,-296(s0)
 4000396:	ec040e23          	sb	zero,-292(s0)
 400039a:	eb840793          	addi	a5,s0,-328
 400039e:	853e                	mv	a0,a5
 40003a0:	340000ef          	jal	ra,40006e0 <receiveMessage>
 40003a4:	ec843783          	ld	a5,-312(s0)
 40003a8:	eaf43023          	sd	a5,-352(s0)
 40003ac:	ec043783          	ld	a5,-320(s0)
 40003b0:	eaf43423          	sd	a5,-344(s0)
 40003b4:	eb842783          	lw	a5,-328(s0)
 40003b8:	e8f42c23          	sw	a5,-360(s0)
 40003bc:	ea043823          	sd	zero,-336(s0)
 40003c0:	ec043783          	ld	a5,-320(s0)
 40003c4:	10079163          	bnez	a5,40004c6 <managementRoutine+0x156>
 40003c8:	ec843703          	ld	a4,-312(s0)
 40003cc:	57f9                	li	a5,-2
 40003ce:	0ef71c63          	bne	a4,a5,40004c6 <managementRoutine+0x156>
 40003d2:	eb842783          	lw	a5,-328(s0)
 40003d6:	0ff7f793          	andi	a5,a5,255
 40003da:	0307879b          	addiw	a5,a5,48
 40003de:	0ff7f793          	andi	a5,a5,255
 40003e2:	ecf40d23          	sb	a5,-294(s0)
 40003e6:	ed840793          	addi	a5,s0,-296
 40003ea:	853e                	mv	a0,a5
 40003ec:	c87ff0ef          	jal	ra,4000072 <output_string>
 40003f0:	eb842703          	lw	a4,-328(s0)
 40003f4:	86ba                	mv	a3,a4
 40003f6:	479d                	li	a5,7
 40003f8:	0cd7e263          	bltu	a5,a3,40004bc <managementRoutine+0x14c>
 40003fc:	02071793          	slli	a5,a4,0x20
 4000400:	9381                	srli	a5,a5,0x20
 4000402:	00279713          	slli	a4,a5,0x2
 4000406:	00000797          	auipc	a5,0x0
 400040a:	4ea78793          	addi	a5,a5,1258 # 40008f0 <internalArgument+0x150>
 400040e:	97ba                	add	a5,a5,a4
 4000410:	439c                	lw	a5,0(a5)
 4000412:	0007871b          	sext.w	a4,a5
 4000416:	00000797          	auipc	a5,0x0
 400041a:	4da78793          	addi	a5,a5,1242 # 40008f0 <internalArgument+0x150>
 400041e:	97ba                	add	a5,a5,a4
 4000420:	8782                	jr	a5
 4000422:	00000517          	auipc	a0,0x0
 4000426:	40e50513          	addi	a0,a0,1038 # 4000830 <internalArgument+0x90>
 400042a:	c49ff0ef          	jal	ra,4000072 <output_string>
 400042e:	d6fff0ef          	jal	ra,400019c <createEnclave>
 4000432:	87aa                	mv	a5,a0
 4000434:	fef42223          	sw	a5,-28(s0)
 4000438:	fe442703          	lw	a4,-28(s0)
 400043c:	87ba                	mv	a5,a4
 400043e:	078e                	slli	a5,a5,0x3
 4000440:	97ba                	add	a5,a5,a4
 4000442:	0796                	slli	a5,a5,0x5
 4000444:	873e                	mv	a4,a5
 4000446:	040027b7          	lui	a5,0x4002
 400044a:	97ba                	add	a5,a5,a4
 400044c:	679c                	ld	a5,8(a5)
 400044e:	eaf43823          	sd	a5,-336(s0)
 4000452:	a0ad                	j	40004bc <managementRoutine+0x14c>
 4000454:	00000517          	auipc	a0,0x0
 4000458:	40450513          	addi	a0,a0,1028 # 4000858 <internalArgument+0xb8>
 400045c:	c17ff0ef          	jal	ra,4000072 <output_string>
 4000460:	a8b1                	j	40004bc <managementRoutine+0x14c>
 4000462:	00000517          	auipc	a0,0x0
 4000466:	41e50513          	addi	a0,a0,1054 # 4000880 <internalArgument+0xe0>
 400046a:	c09ff0ef          	jal	ra,4000072 <output_string>
 400046e:	00000797          	auipc	a5,0x0
 4000472:	33278793          	addi	a5,a5,818 # 40007a0 <internalArgument>
 4000476:	639c                	ld	a5,0(a5)
 4000478:	ed043703          	ld	a4,-304(s0)
 400047c:	85ba                	mv	a1,a4
 400047e:	853e                	mv	a0,a5
 4000480:	d65ff0ef          	jal	ra,40001e4 <donatePage>
 4000484:	a825                	j	40004bc <managementRoutine+0x14c>
 4000486:	00000517          	auipc	a0,0x0
 400048a:	42250513          	addi	a0,a0,1058 # 40008a8 <internalArgument+0x108>
 400048e:	be5ff0ef          	jal	ra,4000072 <output_string>
 4000492:	ed043783          	ld	a5,-304(s0)
 4000496:	85be                	mv	a1,a5
 4000498:	4509                	li	a0,2
 400049a:	e05ff0ef          	jal	ra,400029e <switchEnclave>
 400049e:	a839                	j	40004bc <managementRoutine+0x14c>
 40004a0:	00000517          	auipc	a0,0x0
 40004a4:	43050513          	addi	a0,a0,1072 # 40008d0 <internalArgument+0x130>
 40004a8:	bcbff0ef          	jal	ra,4000072 <output_string>
 40004ac:	ed043703          	ld	a4,-304(s0)
 40004b0:	00000797          	auipc	a5,0x0
 40004b4:	2f078793          	addi	a5,a5,752 # 40007a0 <internalArgument>
 40004b8:	e398                	sd	a4,0(a5)
 40004ba:	0001                	nop
 40004bc:	e9840793          	addi	a5,s0,-360
 40004c0:	853e                	mv	a0,a5
 40004c2:	1c8000ef          	jal	ra,400068a <sendMessage>
 40004c6:	0001                	nop
 40004c8:	70b6                	ld	ra,360(sp)
 40004ca:	7416                	ld	s0,352(sp)
 40004cc:	6175                	addi	sp,sp,368
 40004ce:	8082                	ret

00000000040004d0 <initialize>:
 40004d0:	1101                	addi	sp,sp,-32
 40004d2:	ec06                	sd	ra,24(sp)
 40004d4:	e822                	sd	s0,16(sp)
 40004d6:	1000                	addi	s0,sp,32
 40004d8:	13a000ef          	jal	ra,4000612 <getCoreID>
 40004dc:	87aa                	mv	a5,a0
 40004de:	fef42423          	sw	a5,-24(s0)
 40004e2:	fe846783          	lwu	a5,-24(s0)
 40004e6:	5779                	li	a4,-2
 40004e8:	40f707b3          	sub	a5,a4,a5
 40004ec:	853e                	mv	a0,a5
 40004ee:	0ec000ef          	jal	ra,40005da <switchEnclaveID>
 40004f2:	bcbff0ef          	jal	ra,40000bc <flushRemappingTable>
 40004f6:	bd5ff0ef          	jal	ra,40000ca <flushL1Cache>
 40004fa:	6785                	lui	a5,0x1
 40004fc:	02478793          	addi	a5,a5,36 # 1024 <__offset+0x24>
 4000500:	fef43023          	sd	a5,-32(s0)
 4000504:	fe043783          	ld	a5,-32(s0)
 4000508:	4398                	lw	a4,0(a5)
 400050a:	fe842783          	lw	a5,-24(s0)
 400050e:	2781                	sext.w	a5,a5
 4000510:	08e79f63          	bne	a5,a4,40005ae <initialize+0xde>
 4000514:	5579                	li	a0,-2
 4000516:	0c4000ef          	jal	ra,40005da <switchEnclaveID>
 400051a:	00000517          	auipc	a0,0x0
 400051e:	3f650513          	addi	a0,a0,1014 # 4000910 <internalArgument+0x170>
 4000522:	b51ff0ef          	jal	ra,4000072 <output_string>
 4000526:	00000797          	auipc	a5,0x0
 400052a:	23a78793          	addi	a5,a5,570 # 4000760 <state>
 400052e:	4705                	li	a4,1
 4000530:	e798                	sd	a4,8(a5)
 4000532:	fe042623          	sw	zero,-20(s0)
 4000536:	a005                	j	4000556 <initialize+0x86>
 4000538:	00000717          	auipc	a4,0x0
 400053c:	22870713          	addi	a4,a4,552 # 4000760 <state>
 4000540:	fec42783          	lw	a5,-20(s0)
 4000544:	078e                	slli	a5,a5,0x3
 4000546:	97ba                	add	a5,a5,a4
 4000548:	5779                	li	a4,-2
 400054a:	e398                	sd	a4,0(a5)
 400054c:	fec42783          	lw	a5,-20(s0)
 4000550:	2785                	addiw	a5,a5,1
 4000552:	fef42623          	sw	a5,-20(s0)
 4000556:	fec42783          	lw	a5,-20(s0)
 400055a:	2781                	sext.w	a5,a5
 400055c:	fcf05ee3          	blez	a5,4000538 <initialize+0x68>
 4000560:	55f9                	li	a1,-2
 4000562:	04000537          	lui	a0,0x4000
 4000566:	bc3ff0ef          	jal	ra,4000128 <putPageEntry>
 400056a:	55f9                	li	a1,-2
 400056c:	04001537          	lui	a0,0x4001
 4000570:	bb9ff0ef          	jal	ra,4000128 <putPageEntry>
 4000574:	55f9                	li	a1,-2
 4000576:	04002537          	lui	a0,0x4002
 400057a:	bafff0ef          	jal	ra,4000128 <putPageEntry>
 400057e:	0ff00593          	li	a1,255
 4000582:	04001537          	lui	a0,0x4001
 4000586:	b53ff0ef          	jal	ra,40000d8 <fillPage>
 400058a:	4581                	li	a1,0
 400058c:	04002537          	lui	a0,0x4002
 4000590:	b49ff0ef          	jal	ra,40000d8 <fillPage>
 4000594:	bdbff0ef          	jal	ra,400016e <resetNormalWorld>
 4000598:	be5ff0ef          	jal	ra,400017c <clearWorkingMemory>
 400059c:	00000797          	auipc	a5,0x0
 40005a0:	1bc78793          	addi	a5,a5,444 # 4000758 <initialization_done>
 40005a4:	4705                	li	a4,1
 40005a6:	c398                	sw	a4,0(a5)
 40005a8:	dc9ff0ef          	jal	ra,4000370 <managementRoutine>
 40005ac:	bff5                	j	40005a8 <initialize+0xd8>
 40005ae:	d55ff0ef          	jal	ra,4000302 <waitForEnclave>
 40005b2:	87aa                	mv	a5,a0
 40005b4:	853e                	mv	a0,a5
 40005b6:	60e2                	ld	ra,24(sp)
 40005b8:	6442                	ld	s0,16(sp)
 40005ba:	6105                	addi	sp,sp,32
 40005bc:	8082                	ret

00000000040005be <normalWorld>:
 40005be:	1141                	addi	sp,sp,-16
 40005c0:	e422                	sd	s0,8(sp)
 40005c2:	0800                	addi	s0,sp,16
 40005c4:	0001                	nop
 40005c6:	00000797          	auipc	a5,0x0
 40005ca:	19278793          	addi	a5,a5,402 # 4000758 <initialization_done>
 40005ce:	439c                	lw	a5,0(a5)
 40005d0:	dbfd                	beqz	a5,40005c6 <normalWorld+0x8>
 40005d2:	0001                	nop
 40005d4:	6422                	ld	s0,8(sp)
 40005d6:	0141                	addi	sp,sp,16
 40005d8:	8082                	ret

00000000040005da <switchEnclaveID>:
 40005da:	1101                	addi	sp,sp,-32
 40005dc:	ec22                	sd	s0,24(sp)
 40005de:	1000                	addi	s0,sp,32
 40005e0:	fea43423          	sd	a0,-24(s0)
 40005e4:	fe843783          	ld	a5,-24(s0)
 40005e8:	40e79073          	csrw	0x40e,a5
 40005ec:	0001                	nop
 40005ee:	6462                	ld	s0,24(sp)
 40005f0:	6105                	addi	sp,sp,32
 40005f2:	8082                	ret

00000000040005f4 <derivePhysicalCapability>:
 40005f4:	1141                	addi	sp,sp,-16
 40005f6:	e422                	sd	s0,8(sp)
 40005f8:	0800                	addi	s0,sp,16
 40005fa:	0001                	nop
 40005fc:	853e                	mv	a0,a5
 40005fe:	6422                	ld	s0,8(sp)
 4000600:	0141                	addi	sp,sp,16
 4000602:	8082                	ret

0000000004000604 <startNormalWorld>:
 4000604:	1141                	addi	sp,sp,-16
 4000606:	e422                	sd	s0,8(sp)
 4000608:	0800                	addi	s0,sp,16
 400060a:	0001                	nop
 400060c:	6422                	ld	s0,8(sp)
 400060e:	0141                	addi	sp,sp,16
 4000610:	8082                	ret

0000000004000612 <getCoreID>:
 4000612:	1101                	addi	sp,sp,-32
 4000614:	ec22                	sd	s0,24(sp)
 4000616:	1000                	addi	s0,sp,32
 4000618:	f14027f3          	csrr	a5,mhartid
 400061c:	fef42623          	sw	a5,-20(s0)
 4000620:	fec42783          	lw	a5,-20(s0)
 4000624:	853e                	mv	a0,a5
 4000626:	6462                	ld	s0,24(sp)
 4000628:	6105                	addi	sp,sp,32
 400062a:	8082                	ret

000000000400062c <getRootCapability>:
 400062c:	1101                	addi	sp,sp,-32
 400062e:	ec22                	sd	s0,24(sp)
 4000630:	1000                	addi	s0,sp,32
 4000632:	fea43423          	sd	a0,-24(s0)
 4000636:	0001                	nop
 4000638:	fe843503          	ld	a0,-24(s0)
 400063c:	6462                	ld	s0,24(sp)
 400063e:	6105                	addi	sp,sp,32
 4000640:	8082                	ret

0000000004000642 <setManagementInterruptTimer>:
 4000642:	1101                	addi	sp,sp,-32
 4000644:	ec22                	sd	s0,24(sp)
 4000646:	1000                	addi	s0,sp,32
 4000648:	87aa                	mv	a5,a0
 400064a:	fef42623          	sw	a5,-20(s0)
 400064e:	0001                	nop
 4000650:	6462                	ld	s0,24(sp)
 4000652:	6105                	addi	sp,sp,32
 4000654:	8082                	ret

0000000004000656 <getCurrentEnclaveID>:
 4000656:	1101                	addi	sp,sp,-32
 4000658:	ec22                	sd	s0,24(sp)
 400065a:	1000                	addi	s0,sp,32
 400065c:	40e027f3          	csrr	a5,0x40e
 4000660:	fef43423          	sd	a5,-24(s0)
 4000664:	fe843783          	ld	a5,-24(s0)
 4000668:	853e                	mv	a0,a5
 400066a:	6462                	ld	s0,24(sp)
 400066c:	6105                	addi	sp,sp,32
 400066e:	8082                	ret

0000000004000670 <setArgumentEnclaveIdentifier>:
 4000670:	1101                	addi	sp,sp,-32
 4000672:	ec22                	sd	s0,24(sp)
 4000674:	1000                	addi	s0,sp,32
 4000676:	fea43423          	sd	a0,-24(s0)
 400067a:	fe843783          	ld	a5,-24(s0)
 400067e:	40d79073          	csrw	0x40d,a5
 4000682:	0001                	nop
 4000684:	6462                	ld	s0,24(sp)
 4000686:	6105                	addi	sp,sp,32
 4000688:	8082                	ret

000000000400068a <sendMessage>:
 400068a:	7179                	addi	sp,sp,-48
 400068c:	f406                	sd	ra,40(sp)
 400068e:	f022                	sd	s0,32(sp)
 4000690:	1800                	addi	s0,sp,48
 4000692:	fca43c23          	sd	a0,-40(s0)
 4000696:	fe043423          	sd	zero,-24(s0)
 400069a:	fd843783          	ld	a5,-40(s0)
 400069e:	6b9c                	ld	a5,16(a5)
 40006a0:	853e                	mv	a0,a5
 40006a2:	fcfff0ef          	jal	ra,4000670 <setArgumentEnclaveIdentifier>
 40006a6:	fd843783          	ld	a5,-40(s0)
 40006aa:	6f9c                	ld	a5,24(a5)
 40006ac:	0792                	slli	a5,a5,0x4
 40006ae:	fe843703          	ld	a4,-24(s0)
 40006b2:	97ba                	add	a5,a5,a4
 40006b4:	fef43423          	sd	a5,-24(s0)
 40006b8:	fd843783          	ld	a5,-40(s0)
 40006bc:	439c                	lw	a5,0(a5)
 40006be:	1782                	slli	a5,a5,0x20
 40006c0:	9381                	srli	a5,a5,0x20
 40006c2:	8bbd                	andi	a5,a5,15
 40006c4:	fe843703          	ld	a4,-24(s0)
 40006c8:	97ba                	add	a5,a5,a4
 40006ca:	fef43423          	sd	a5,-24(s0)
 40006ce:	fe843783          	ld	a5,-24(s0)
 40006d2:	41079073          	csrw	0x410,a5
 40006d6:	0001                	nop
 40006d8:	70a2                	ld	ra,40(sp)
 40006da:	7402                	ld	s0,32(sp)
 40006dc:	6145                	addi	sp,sp,48
 40006de:	8082                	ret

00000000040006e0 <receiveMessage>:
 40006e0:	7179                	addi	sp,sp,-48
 40006e2:	f406                	sd	ra,40(sp)
 40006e4:	f022                	sd	s0,32(sp)
 40006e6:	1800                	addi	s0,sp,48
 40006e8:	fca43c23          	sd	a0,-40(s0)
 40006ec:	fe843503          	ld	a0,-24(s0)
 40006f0:	f81ff0ef          	jal	ra,4000670 <setArgumentEnclaveIdentifier>
 40006f4:	411027f3          	csrr	a5,0x411
 40006f8:	fef43023          	sd	a5,-32(s0)
 40006fc:	40d027f3          	csrr	a5,0x40d
 4000700:	fef43423          	sd	a5,-24(s0)
 4000704:	fe043783          	ld	a5,-32(s0)
 4000708:	2781                	sext.w	a5,a5
 400070a:	8bbd                	andi	a5,a5,15
 400070c:	0007871b          	sext.w	a4,a5
 4000710:	fd843783          	ld	a5,-40(s0)
 4000714:	c398                	sw	a4,0(a5)
 4000716:	fd843783          	ld	a5,-40(s0)
 400071a:	fe843703          	ld	a4,-24(s0)
 400071e:	e798                	sd	a4,8(a5)
 4000720:	f37ff0ef          	jal	ra,4000656 <getCurrentEnclaveID>
 4000724:	872a                	mv	a4,a0
 4000726:	fd843783          	ld	a5,-40(s0)
 400072a:	eb98                	sd	a4,16(a5)
 400072c:	fd843783          	ld	a5,-40(s0)
 4000730:	439c                	lw	a5,0(a5)
 4000732:	1782                	slli	a5,a5,0x20
 4000734:	9381                	srli	a5,a5,0x20
 4000736:	fe043703          	ld	a4,-32(s0)
 400073a:	40f707b3          	sub	a5,a4,a5
 400073e:	0047d713          	srli	a4,a5,0x4
 4000742:	fd843783          	ld	a5,-40(s0)
 4000746:	ef98                	sd	a4,24(a5)
 4000748:	0001                	nop
 400074a:	70a2                	ld	ra,40(sp)
 400074c:	7402                	ld	s0,32(sp)
 400074e:	6145                	addi	sp,sp,48
 4000750:	8082                	ret
